target datalayout = "e-m:e-p270:32:32-p271:32:32-p272:64:64-i64:64-i128:128-f80:128-n8:16:32:64-S128"
target triple = "x86_64-pc-linux-gnu"

@.str.314 = private unnamed_addr constant [6 x i8] c"eigrp\00", align 1
@proto_eigrp = internal global i32 0, align 4
@.str.315 = private unnamed_addr constant [7 x i8] c"ipxsap\00", align 1
@ipxsap_handle = internal global ptr null, align 8
@.str.316 = private unnamed_addr constant [11 x i8] c"media_type\00", align 1
@media_type_table = internal global ptr null, align 8
@.str.317 = private unnamed_addr constant [9 x i8] c"ip.proto\00", align 1
@.str.318 = private unnamed_addr constant [9 x i8] c"ddp.type\00", align 1
@.str.319 = private unnamed_addr constant [11 x i8] c"ipx.socket\00", align 1

; Function Attrs: null_pointer_is_valid sspstrong uwtable
define hidden void @proto_reg_handoff_eigrp() #0 {
  %1 = alloca ptr, align 8
  call void @llvm.lifetime.start.p0(i64 8, ptr %1) #6
  %2 = call ptr @find_dissector(ptr noundef @.str.314)
  store ptr %2, ptr %1, align 8
  %3 = load i32, ptr @proto_eigrp, align 4
  %4 = call ptr @find_dissector_add_dependency(ptr noundef @.str.315, i32 noundef %3)
  store ptr %4, ptr @ipxsap_handle, align 8
  %5 = call ptr @find_dissector_table(ptr noundef @.str.316)
  store ptr %5, ptr @media_type_table, align 8
  %6 = load ptr, ptr %1, align 8
  call void @dissector_add_uint(ptr noundef @.str.317, i32 noundef 88, ptr noundef %6)
  %7 = load ptr, ptr %1, align 8
  call void @dissector_add_uint(ptr noundef @.str.318, i32 noundef 88, ptr noundef %7)
  %8 = load ptr, ptr %1, align 8
  call void @dissector_add_uint(ptr noundef @.str.319, i32 noundef 34238, ptr noundef %8)
  call void @llvm.lifetime.end.p0(i64 8, ptr %1) #6
  ret void
}