; Function Attrs: null_pointer_is_valid sspstrong uwtable
define hidden void @proto_reg_handoff_eigrp() local_unnamed_addr #0 {
  %1 = tail call ptr @find_dissector(ptr noundef nonnull @.str.314)
  %2 = load i32, ptr @proto_eigrp, align 4
  %3 = tail call ptr @find_dissector_add_dependency(ptr noundef nonnull @.str.315, i32 noundef %2)
  store ptr %3, ptr @ipxsap_handle, align 8
  %4 = tail call ptr @find_dissector_table(ptr noundef nonnull @.str.316)
  store ptr %4, ptr @media_type_table, align 8
  tail call void @dissector_add_uint(ptr noundef nonnull @.str.317, i32 noundef 88, ptr noundef %1)
  tail call void @dissector_add_uint(ptr noundef nonnull @.str.318, i32 noundef 88, ptr noundef %1)
  tail call void @dissector_add_uint(ptr noundef nonnull @.str.319, i32 noundef 34238, ptr noundef %1)
  ret void
}